target datalayout = "e-m:e-p270:32:32-p271:32:32-p272:64:64-i64:64-i128:128-f80:128-n8:16:32:64-S128"
target triple = "x86_64-pc-linux-gnu"

%struct._object = type { %union.anon, ptr }
%union.anon = type { i64 }
%struct.PyGetSetDef = type { ptr, ptr, ptr, ptr, ptr }
%struct.PyDescrObject = type { %struct._object, ptr, ptr, ptr }
%struct.PyGetSetDescrObject = type { %struct.PyDescrObject, ptr }

@_Py_NoneStruct = external global %struct._object, align 8

; Function Attrs: nounwind uwtable
define internal ptr @getset_get_doc(ptr noundef %0, ptr noundef %1) #0 {
  %3 = alloca ptr, align 8
  %4 = alloca ptr, align 8
  %5 = alloca ptr, align 8
  %6 = alloca ptr, align 8
  %7 = alloca i32, align 4
  store ptr %0, ptr %4, align 8, !tbaa !4
  store ptr %1, ptr %5, align 8, !tbaa !9
  call void @llvm.lifetime.start.p0(i64 8, ptr %6) #6
  %8 = load ptr, ptr %4, align 8, !tbaa !4
  store ptr %8, ptr %6, align 8, !tbaa !9
  %9 = load ptr, ptr %6, align 8, !tbaa !9
  %10 = getelementptr inbounds nuw %struct.PyGetSetDescrObject, ptr %9, i32 0, i32 1
  %11 = load ptr, ptr %10, align 8, !tbaa !39
  %12 = getelementptr inbounds nuw %struct.PyGetSetDef, ptr %11, i32 0, i32 3
  %13 = load ptr, ptr %12, align 8, !tbaa !164
  %14 = icmp eq ptr %13, null
  br i1 %14, label %15, label %16

15:                                               ; preds = %2
  store ptr @_Py_NoneStruct, ptr %3, align 8
  store i32 1, ptr %7, align 4
  br label %23

16:                                               ; preds = %2
  %17 = load ptr, ptr %6, align 8, !tbaa !9
  %18 = getelementptr inbounds nuw %struct.PyGetSetDescrObject, ptr %17, i32 0, i32 1
  %19 = load ptr, ptr %18, align 8, !tbaa !39
  %20 = getelementptr inbounds nuw %struct.PyGetSetDef, ptr %19, i32 0, i32 3
  %21 = load ptr, ptr %20, align 8, !tbaa !164
  %22 = call ptr @PyUnicode_FromString(ptr noundef %21)
  store ptr %22, ptr %3, align 8
  store i32 1, ptr %7, align 4
  br label %23

23:                                               ; preds = %16, %15
  call void @llvm.lifetime.end.p0(i64 8, ptr %6) #6
  %24 = load ptr, ptr %3, align 8
  ret ptr %24
}