; Function Attrs: nounwind uwtable
define internal ptr @getset_get_doc(ptr noundef readonly captures(none) %0, ptr readnone captures(none) %1) #0 {
  %3 = getelementptr inbounds nuw i8, ptr %0, i64 40
  %4 = load ptr, ptr %3, align 8, !tbaa !42
  %5 = getelementptr inbounds nuw i8, ptr %4, i64 24
  %6 = load ptr, ptr %5, align 8, !tbaa !162
  %7 = icmp eq ptr %6, null
  br i1 %7, label %10, label %8

8:                                                ; preds = %2
  %9 = tail call ptr @PyUnicode_FromString(ptr noundef nonnull %6) #9
  br label %10

10:                                               ; preds = %2, %8
  %.0 = phi ptr [ %9, %8 ], [ @_Py_NoneStruct, %2 ]
  ret ptr %.0
}